target datalayout = "e-m:e-p270:32:32-p271:32:32-p272:64:64-i64:64-i128:128-f80:128-n8:16:32:64-S128"
target triple = "x86_64-pc-linux-gnu"

%class.TypeAryPtr = type <{ %class.TypeOopPtr, ptr, i8, [7 x i8] }>
%class.TypeOopPtr = type { %class.TypePtr.base, ptr, ptr, ptr, i8, i8, i8, i8, i32 }
%class.TypePtr.base = type <{ %class.Type.base, [4 x i8], ptr, i32, i32, i32 }>
%class.Type.base = type <{ ptr, ptr, i32 }>
%class.TypeAry = type <{ %class.Type.base, [4 x i8], ptr, ptr, i8, [7 x i8] }>
%class.TypePtr = type <{ %class.Type.base, [4 x i8], ptr, i32, i32, i32, [4 x i8] }>

; Function Attrs: mustprogress nounwind uwtable
define linkonce_odr hidden noundef ptr @_ZNK10TypeOopPtr9const_oopEv(ptr noundef nonnull align 8 dereferenceable(80) %0) #1 comdat align 2 {
  %2 = alloca ptr, align 8
  store ptr %0, ptr %2, align 8
  %3 = load ptr, ptr %2, align 8
  %4 = getelementptr inbounds %class.TypeOopPtr, ptr %3, i32 0, i32 1
  %5 = load ptr, ptr %4, align 8
  ret ptr %5
}

; Function Attrs: mustprogress nounwind uwtable
define linkonce_odr hidden noundef i32 @_ZNK7TypePtr3ptrEv(ptr noundef nonnull align 8 dereferenceable(44) %0) #1 comdat align 2 {
  %2 = alloca ptr, align 8
  store ptr %0, ptr %2, align 8
  %3 = load ptr, ptr %2, align 8
  %4 = getelementptr inbounds %class.TypePtr, ptr %3, i32 0, i32 5
  %5 = load i32, ptr %4, align 8
  ret i32 %5
}

; Function Attrs: mustprogress nounwind uwtable
define linkonce_odr hidden noundef zeroext i1 @_ZNK10TypeAryPtr9is_stableEv(ptr noundef nonnull align 8 dereferenceable(89) %0) #1 comdat align 2 {
  %2 = alloca ptr, align 8
  store ptr %0, ptr %2, align 8
  %3 = load ptr, ptr %2, align 8
  %4 = getelementptr inbounds %class.TypeAryPtr, ptr %3, i32 0, i32 1
  %5 = load ptr, ptr %4, align 8
  %6 = getelementptr inbounds %class.TypeAry, ptr %5, i32 0, i32 4
  %7 = load i8, ptr %6, align 8
  %8 = trunc i8 %7 to i1
  ret i1 %8
}

; Function Attrs: mustprogress nounwind uwtable
define linkonce_odr hidden noundef ptr @_ZNK10TypeAryPtr4elemEv(ptr noundef nonnull align 8 dereferenceable(89) %0) #1 comdat align 2 {
  %2 = alloca ptr, align 8
  store ptr %0, ptr %2, align 8
  %3 = load ptr, ptr %2, align 8
  %4 = getelementptr inbounds %class.TypeAryPtr, ptr %3, i32 0, i32 1
  %5 = load ptr, ptr %4, align 8
  %6 = getelementptr inbounds %class.TypeAry, ptr %5, i32 0, i32 2
  %7 = load ptr, ptr %6, align 8
  ret ptr %7
}

; Function Attrs: mustprogress nounwind uwtable
define linkonce_odr hidden noundef ptr @_ZNK10TypeAryPtr4sizeEv(ptr noundef nonnull align 8 dereferenceable(89) %0) #1 comdat align 2 {
  %2 = alloca ptr, align 8
  store ptr %0, ptr %2, align 8
  %3 = load ptr, ptr %2, align 8
  %4 = getelementptr inbounds %class.TypeAryPtr, ptr %3, i32 0, i32 1
  %5 = load ptr, ptr %4, align 8
  %6 = getelementptr inbounds %class.TypeAry, ptr %5, i32 0, i32 3
  %7 = load ptr, ptr %6, align 8
  ret ptr %7
}

; Function Attrs: mustprogress nounwind uwtable
define hidden noundef ptr @_ZNK10TypeAryPtr12cast_to_sizeEPK7TypeInt(ptr noundef nonnull align 8 dereferenceable(89) %0, ptr noundef %1) unnamed_addr #1 align 2 {
  %3 = alloca ptr, align 8
  %4 = alloca ptr, align 8
  %5 = alloca ptr, align 8
  %6 = alloca ptr, align 8
  store ptr %0, ptr %4, align 8
  store ptr %1, ptr %5, align 8
  %7 = load ptr, ptr %4, align 8
  %8 = load ptr, ptr %5, align 8
  %9 = load ptr, ptr %7, align 8
  %10 = getelementptr inbounds ptr, ptr %9, i64 43
  %11 = load ptr, ptr %10, align 8
  %12 = call noundef ptr %11(ptr noundef nonnull align 8 dereferenceable(89) %7, ptr noundef %8)
  store ptr %12, ptr %5, align 8
  %13 = load ptr, ptr %5, align 8
  %14 = call noundef ptr @_ZNK10TypeAryPtr4sizeEv(ptr noundef nonnull align 8 dereferenceable(89) %7)
  %15 = icmp eq ptr %13, %14
  br i1 %15, label %16, label %17

16:                                               ; preds = %2
  store ptr %7, ptr %3, align 8
  br label %42

17:                                               ; preds = %2
  %18 = call noundef ptr @_ZNK10TypeAryPtr4elemEv(ptr noundef nonnull align 8 dereferenceable(89) %7)
  %19 = load ptr, ptr %5, align 8
  %20 = call noundef zeroext i1 @_ZNK10TypeAryPtr9is_stableEv(ptr noundef nonnull align 8 dereferenceable(89) %7)
  %21 = call noundef ptr @_ZN7TypeAry4makeEPK4TypePK7TypeIntb(ptr noundef %18, ptr noundef %19, i1 noundef zeroext %20)
  store ptr %21, ptr %6, align 8
  %22 = call noundef i32 @_ZNK7TypePtr3ptrEv(ptr noundef nonnull align 8 dereferenceable(44) %7)
  %23 = call noundef ptr @_ZNK10TypeOopPtr9const_oopEv(ptr noundef nonnull align 8 dereferenceable(80) %7)
  %24 = load ptr, ptr %6, align 8
  %25 = load ptr, ptr %7, align 8
  %26 = getelementptr inbounds ptr, ptr %25, i64 29
  %27 = load ptr, ptr %26, align 8
  %28 = call noundef ptr %27(ptr noundef nonnull align 8 dereferenceable(89) %7)
  %29 = load ptr, ptr %7, align 8
  %30 = getelementptr inbounds ptr, ptr %29, i64 34
  %31 = load ptr, ptr %30, align 8
  %32 = call noundef zeroext i1 %31(ptr noundef nonnull align 8 dereferenceable(80) %7)
  %33 = getelementptr inbounds %class.TypePtr, ptr %7, i32 0, i32 4
  %34 = load i32, ptr %33, align 4
  %35 = getelementptr inbounds %class.TypeOopPtr, ptr %7, i32 0, i32 8
  %36 = load i32, ptr %35, align 4
  %37 = getelementptr inbounds %class.TypePtr, ptr %7, i32 0, i32 2
  %38 = load ptr, ptr %37, align 8
  %39 = getelementptr inbounds %class.TypePtr, ptr %7, i32 0, i32 3
  %40 = load i32, ptr %39, align 8
  %41 = call noundef ptr @_ZN10TypeAryPtr4makeEN7TypePtr3PTREP8ciObjectPK7TypeAryP7ciKlassbiiPKS0_ib(i32 noundef %22, ptr noundef %23, ptr noundef %24, ptr noundef %28, i1 noundef zeroext %32, i32 noundef %34, i32 noundef %36, ptr noundef %38, i32 noundef %40, i1 noundef zeroext false)
  store ptr %41, ptr %3, align 8
  br label %42

42:                                               ; preds = %17, %16
  %43 = load ptr, ptr %3, align 8
  ret ptr %43
}