; Function Attrs: mustprogress nounwind uwtable
define hidden noundef ptr @_ZNK10TypeAryPtr12cast_to_sizeEPK7TypeInt(ptr noundef nonnull align 8 dereferenceable(89) %0, ptr noundef %1) unnamed_addr #0 align 2 {
  %3 = load ptr, ptr %0, align 8
  %4 = getelementptr inbounds i8, ptr %3, i64 344
  %5 = load ptr, ptr %4, align 8
  %6 = tail call noundef ptr %5(ptr noundef nonnull align 8 dereferenceable(89) %0, ptr noundef %1) #17
  %7 = getelementptr inbounds i8, ptr %0, i64 80
  %8 = load ptr, ptr %7, align 8
  %9 = getelementptr inbounds i8, ptr %8, i64 32
  %10 = load ptr, ptr %9, align 8
  %11 = icmp eq ptr %6, %10
  br i1 %11, label %40, label %12

12:                                               ; preds = %2
  %13 = getelementptr inbounds i8, ptr %8, i64 24
  %14 = load ptr, ptr %13, align 8
  %15 = getelementptr inbounds i8, ptr %8, i64 40
  %16 = load i8, ptr %15, align 8
  %17 = trunc i8 %16 to i1
  %18 = tail call noundef ptr @_ZN7TypeAry4makeEPK4TypePK7TypeIntb(ptr noundef %14, ptr noundef %6, i1 noundef zeroext %17)
  %19 = getelementptr inbounds i8, ptr %0, i64 40
  %20 = load i32, ptr %19, align 8
  %21 = getelementptr inbounds i8, ptr %0, i64 48
  %22 = load ptr, ptr %21, align 8
  %23 = load ptr, ptr %0, align 8
  %24 = getelementptr inbounds i8, ptr %23, i64 232
  %25 = load ptr, ptr %24, align 8
  %26 = tail call noundef ptr %25(ptr noundef nonnull align 8 dereferenceable(89) %0) #17
  %27 = load ptr, ptr %0, align 8
  %28 = getelementptr inbounds i8, ptr %27, i64 272
  %29 = load ptr, ptr %28, align 8
  %30 = tail call noundef zeroext i1 %29(ptr noundef nonnull align 8 dereferenceable(80) %0) #17
  %31 = getelementptr inbounds i8, ptr %0, i64 36
  %32 = load i32, ptr %31, align 4
  %33 = getelementptr inbounds i8, ptr %0, i64 76
  %34 = load i32, ptr %33, align 4
  %35 = getelementptr inbounds i8, ptr %0, i64 24
  %36 = load ptr, ptr %35, align 8
  %37 = getelementptr inbounds i8, ptr %0, i64 32
  %38 = load i32, ptr %37, align 8
  %39 = tail call noundef ptr @_ZN10TypeAryPtr4makeEN7TypePtr3PTREP8ciObjectPK7TypeAryP7ciKlassbiiPKS0_ib(i32 noundef %20, ptr noundef %22, ptr noundef %18, ptr noundef %26, i1 noundef zeroext %30, i32 noundef %32, i32 noundef %34, ptr noundef %36, i32 noundef %38, i1 noundef zeroext false)
  br label %40

40:                                               ; preds = %2, %12
  %.0 = phi ptr [ %39, %12 ], [ %0, %2 ]
  ret ptr %.0
}